---------------------------------------------
PIC ASSEMBLER LISTING
Line    Address Opcode  Instruction
---------------------------------------------
0001    0000            ; ORG 0x00
0002    0000            CONT EQU 0x20
0003    0000            CONT1 EQU 0x21
0004    0000            CONTINI EQU 248
0005    0000            
0006    0000            DIGA EQU 0x30
0007    0000            DIGB EQU 0x31
0008    0000            DIGC EQU 0x32
0009    0000            DIGD EQU 0x33
0010    0000            
0011    0000            INICIO:
0012    0000            
0013    0000    01B0    	CLRF DIGA
0014    0001    01B1    	CLRF DIGB
0015    0002    01B2    	CLRF DIGC
0016    0003    01B3    	CLRF DIGD
0017    0004            	
0018    0004    3086    	MOVLW TRISB
0019    0005    0084    	MOVWF FSR
0020    0006    0180    	CLRF INDF
0021    0007    3087    	MOVLW TRISC
0022    0008    0084    	MOVWF FSR
0023    0009    0180    	CLRF INDF
0024    000A    3000    	MOVLW 0x00
0025    000B    0087    	MOVWF PORTC
0026    000C            
0027    000C            CONTA
0028    000C    2026    	CALL MOSTRA	
0029    000D            
0030    000D    0AB0    	INCF DIGA, F
0031    000E    300A    	MOVLW 10
0032    000F    0230    	SUBWF DIGA, W
0033    0010    1D03    	BTFSS STATUS,Z
0034    0011    280C    	GOTO CONTA
0035    0012    01B0    	CLRF DIGA
0036    0013    0AB1    	INCF DIGB, F
0037    0014    300A    	MOVLW 10
0038    0015    0231    	SUBWF DIGB, W
0039    0016    1D03    	BTFSS STATUS,Z
0040    0017    280C    	GOTO CONTA
0041    0018    01B1    	CLRF DIGB
0042    0019    0AB2    	INCF DIGC, F
0043    001A    300A    	MOVLW 10
0044    001B    0232    	SUBWF DIGC, W
0045    001C    1D03    	BTFSS STATUS,Z
0046    001D    280C    	GOTO CONTA
0047    001E    01B2    	CLRF DIGC
0048    001F    0AB3    	INCF DIGD, F
0049    0020    300A    	MOVLW 10
0050    0021    0233    	SUBWF DIGD, W
0051    0022    1D03    	BTFSS STATUS,Z
0052    0023    280C    	GOTO CONTA
0053    0024    01B3    	CLRF DIGD
0054    0025    280C    	GOTO CONTA	
0055    0026            
0056    0026            MOSTRA
0057    0026    0830    	MOVFW DIGA
0058    0027    205B    	CALL DIG
0059    0028    0086    	MOVWF PORTB
0060    0029    1407    	BSF PORTC, 0
0061    002A    1007    	BCF PORTC,0	
0062    002B    0831    	MOVFW DIGB
0063    002C    205B    	CALL DIG
0064    002D    0086    	MOVWF PORTB
0065    002E    1487    	BSF PORTC, 1
0066    002F    1087    	BCF PORTC, 1	
0067    0030    0832    	MOVFW DIGC
0068    0031    205B    	CALL DIG
0069    0032    0086    	MOVWF PORTB
0070    0033    1507    	BSF PORTC, 2
0071    0034    1107    	BCF PORTC,2	
0072    0035    0833    	MOVFW DIGD
0073    0036    205B    	CALL DIG
0074    0037    0086    	MOVWF PORTB
0075    0038    1587    	BSF PORTC, 3
0076    0039    1187    	BCF PORTC,3
0077    003A    0008    	RETURN	
0078    003B            
0079    003B            
0080    003B            	
0081    003B    0822    	MOVFW 0x22
0082    003C    205B    	CALL DIG
0083    003D    0086    	MOVWF PORTB
0084    003E    0AA2    	INCF 0x22,F
0085    003F    300A    	MOVLW 10
0086    0040    0222    	SUBWF 0x22,W
0087    0041    1D03    	BTFSS STATUS,Z
0088    0042    280C    	GOTO CONTA
0089    0043            FIM
0090    0043    2843    	GOTO FIM
0091    0044            LOOP0		
0092    0044    2055    	CALL DELAY_100MS
0093    0045    3001    	MOVLW 0x01    ;1
0094    0046    0086    	MOVWF PORTB   ;1
0095    0047            
0096    0047            	
0097    0047            LOOP
0098    0047    2055    	CALL DELAY_100MS
0099    0048    0D86    	RLF PORTB,F   ;1
0100    0049    1B86    	BTFSC PORTB,7 ;1
0101    004A    2844    	GOTO LOOP0    ;2
0102    004B    2847    	GOTO LOOP			
0103    004C            	
0104    004C            	
0105    004C            	
0106    004C            	
0107    004C            DELAY_MS
0108    004C    30F8    	MOVLW CONTINI
0109    004D    00A0    	MOVWF CONT
0110    004E    0000    	NOP
0111    004F    0000    	NOP
0112    0050    0000    	NOP
0113    0051            DELAY_LOOP
0114    0051    0000    	NOP
0115    0052    0BA0    	DECFSZ CONT,F
0116    0053    2851    	GOTO DELAY_LOOP
0117    0054    0008    	RETURN	
0118    0055            
0119    0055            DELAY_100MS
0120    0055    3064    	MOVLw 100
0121    0056    00A1    	MOVWF CONT1
0122    0057            DELAY_100MS_LOOP
0123    0057    204C    	CALL DELAY_MS
0124    0058    0BA1    	DECFSZ CONT1,F
0125    0059    2857    	GOTO DELAY_100MS_LOOP	
0126    005A    0008    	RETURN
0127    005B            	
0128    005B    0782    DIG	ADDWF	PCL,F	
0129    005C    343F    DIG0	RETLW 0x3F
0130    005D    3406    DIG1	RETLW 0x06
0131    005E    345B    DIG2	RETLW 0x5b
0132    005F    344F    DIG3	RETLW 0x4F
0133    0060    3466    DIG4	RETLW 0x66
0134    0061    346D    DIG5	RETLW 0x6D
0135    0062    347D    DIG6	RETLW 0x7D
0136    0063    3407    DIG7	RETLW 0x07
0137    0064    347F    DIG8	RETLW 0x7F
0138    0065    346F    DIG9	RETLW 0x6F
---------------------------------------------
Number of errors = 0
